target datalayout = "e-m:e-p270:32:32-p271:32:32-p272:64:64-i64:64-i128:128-f80:128-n8:16:32:64-S128"
target triple = "x86_64-pc-linux-gnu"

%struct.RelOptInfo = type { i32, i32, ptr, double, i8, i8, i8, ptr, ptr, ptr, ptr, ptr, ptr, ptr, ptr, ptr, ptr, i32, i32, i32, i16, i16, ptr, ptr, ptr, ptr, ptr, ptr, ptr, ptr, i32, double, double, ptr, ptr, ptr, i32, i32, i32, i32, i8, ptr, ptr, ptr, ptr, ptr, %struct.QualCost, i32, ptr, i8, i8, ptr, ptr, ptr, ptr, i32, ptr, i8, ptr, ptr, ptr, ptr, ptr, ptr }
%struct.QualCost = type { double, double }
%struct.RangeTblEntry = type { i32, ptr, ptr, i32, i32, i8, i8, i32, i32, ptr, ptr, i8, i32, i32, ptr, ptr, ptr, ptr, ptr, i8, ptr, ptr, ptr, i32, i8, ptr, ptr, ptr, ptr, double, ptr, i8, i8, ptr }
%struct.FdwRoutine = type { i32, ptr, ptr, ptr, ptr, ptr, ptr, ptr, ptr, ptr, ptr, ptr, ptr, ptr, ptr, ptr, ptr, ptr, ptr, ptr, ptr, ptr, ptr, ptr, ptr, ptr, ptr, ptr, ptr, ptr, ptr, ptr, ptr, ptr, ptr, ptr, ptr, ptr, ptr, ptr, ptr, ptr, ptr, ptr, ptr, ptr }

; Function Attrs: nounwind uwtable
define internal void @set_foreign_size(ptr noundef %0, ptr noundef %1, ptr noundef %2) #0 {
  %4 = alloca ptr, align 8
  %5 = alloca ptr, align 8
  %6 = alloca ptr, align 8
  store ptr %0, ptr %4, align 8
  store ptr %1, ptr %5, align 8
  store ptr %2, ptr %6, align 8
  %7 = load ptr, ptr %4, align 8
  %8 = load ptr, ptr %5, align 8
  call void @set_foreign_size_estimates(ptr noundef %7, ptr noundef %8)
  %9 = load ptr, ptr %5, align 8
  %10 = getelementptr inbounds nuw %struct.RelOptInfo, ptr %9, i32 0, i32 41
  %11 = load ptr, ptr %10, align 8
  %12 = getelementptr inbounds nuw %struct.FdwRoutine, ptr %11, i32 0, i32 1
  %13 = load ptr, ptr %12, align 8
  %14 = load ptr, ptr %4, align 8
  %15 = load ptr, ptr %5, align 8
  %16 = load ptr, ptr %6, align 8
  %17 = getelementptr inbounds nuw %struct.RangeTblEntry, ptr %16, i32 0, i32 4
  %18 = load i32, ptr %17, align 4
  call void %13(ptr noundef %14, ptr noundef %15, i32 noundef %18)
  %19 = load ptr, ptr %5, align 8
  %20 = getelementptr inbounds nuw %struct.RelOptInfo, ptr %19, i32 0, i32 3
  %21 = load double, ptr %20, align 8
  %22 = call double @clamp_row_est(double noundef %21)
  %23 = load ptr, ptr %5, align 8
  %24 = getelementptr inbounds nuw %struct.RelOptInfo, ptr %23, i32 0, i32 3
  store double %22, ptr %24, align 8
  %25 = load ptr, ptr %5, align 8
  %26 = getelementptr inbounds nuw %struct.RelOptInfo, ptr %25, i32 0, i32 31
  %27 = load double, ptr %26, align 8
  %28 = load ptr, ptr %5, align 8
  %29 = getelementptr inbounds nuw %struct.RelOptInfo, ptr %28, i32 0, i32 3
  %30 = load double, ptr %29, align 8
  %31 = fcmp ogt double %27, %30
  br i1 %31, label %32, label %36

32:                                               ; preds = %3
  %33 = load ptr, ptr %5, align 8
  %34 = getelementptr inbounds nuw %struct.RelOptInfo, ptr %33, i32 0, i32 31
  %35 = load double, ptr %34, align 8
  br label %40

36:                                               ; preds = %3
  %37 = load ptr, ptr %5, align 8
  %38 = getelementptr inbounds nuw %struct.RelOptInfo, ptr %37, i32 0, i32 3
  %39 = load double, ptr %38, align 8
  br label %40

40:                                               ; preds = %36, %32
  %41 = phi double [ %35, %32 ], [ %39, %36 ]
  %42 = load ptr, ptr %5, align 8
  %43 = getelementptr inbounds nuw %struct.RelOptInfo, ptr %42, i32 0, i32 31
  store double %41, ptr %43, align 8
  ret void
}