; Function Attrs: nounwind uwtable
define internal fastcc void @set_foreign_size(ptr noundef %0, ptr noundef %1, ptr noundef readonly captures(none) %2) unnamed_addr #0 {
  tail call void @set_foreign_size_estimates(ptr noundef %0, ptr noundef %1) #9
  %4 = getelementptr inbounds nuw i8, ptr %1, i64 264
  %5 = load ptr, ptr %4, align 8
  %6 = getelementptr inbounds nuw i8, ptr %5, i64 8
  %7 = load ptr, ptr %6, align 8
  %8 = getelementptr inbounds nuw i8, ptr %2, i64 28
  %9 = load i32, ptr %8, align 4
  tail call void %7(ptr noundef %0, ptr noundef %1, i32 noundef %9) #9
  %10 = getelementptr inbounds nuw i8, ptr %1, i64 16
  %11 = load double, ptr %10, align 8
  %12 = tail call double @clamp_row_est(double noundef %11) #9
  store double %12, ptr %10, align 8
  %13 = getelementptr inbounds nuw i8, ptr %1, i64 200
  %14 = load double, ptr %13, align 8
  %15 = fcmp ogt double %14, %12
  %. = select i1 %15, double %14, double %12
  store double %., ptr %13, align 8
  ret void
}